; Function Attrs: mustprogress nofree norecurse nosync nounwind memory(readwrite, inaccessiblemem: none) uwtable
define dso_local void @stbtt_PackFontRangesPackRects(ptr noundef readonly captures(none) %0, ptr noundef captures(none) %1, i32 noundef %2) local_unnamed_addr #15 {
  %4 = getelementptr inbounds nuw i8, ptr %0, i64 8
  %5 = load ptr, ptr %4, align 8
  %6 = icmp sgt i32 %2, 0
  br i1 %6, label %.lr.ph.i, label %._crit_edge.i

.lr.ph.i:                                         ; preds = %3
  %7 = getelementptr inbounds nuw i8, ptr %5, i64 8
  %8 = getelementptr inbounds nuw i8, ptr %5, i64 16
  %9 = getelementptr inbounds nuw i8, ptr %5, i64 12
  %10 = getelementptr inbounds nuw i8, ptr %5, i64 4
  %wide.trip.count.i = zext nneg i32 %2 to i64
  %.pre.i = load i32, ptr %7, align 4
  br label %11

11:                                               ; preds = %42, %.lr.ph.i
  %12 = phi i32 [ %.pre.i, %.lr.ph.i ], [ %35, %42 ]
  %indvars.iv.i = phi i64 [ 0, %.lr.ph.i ], [ %indvars.iv.next.i, %42 ]
  %13 = getelementptr inbounds nuw %struct.stbrp_rect, ptr %1, i64 %indvars.iv.i
  %14 = getelementptr inbounds nuw i8, ptr %13, i64 12
  %15 = load i32, ptr %14, align 4
  %16 = add nsw i32 %15, %12
  %17 = load i32, ptr %5, align 4
  %18 = icmp sgt i32 %16, %17
  br i1 %18, label %19, label %._crit_edge49.i

._crit_edge49.i:                                  ; preds = %11
  %.pre50.i = load i32, ptr %9, align 4
  br label %21

19:                                               ; preds = %11
  store i32 0, ptr %7, align 4
  %20 = load i32, ptr %8, align 4
  store i32 %20, ptr %9, align 4
  br label %21

21:                                               ; preds = %19, %._crit_edge49.i
  %22 = phi i32 [ %12, %._crit_edge49.i ], [ 0, %19 ]
  %23 = phi i32 [ %.pre50.i, %._crit_edge49.i ], [ %20, %19 ]
  %24 = getelementptr inbounds nuw i8, ptr %13, i64 16
  %25 = load i32, ptr %24, align 4
  %26 = add nsw i32 %25, %23
  %27 = load i32, ptr %10, align 4
  %28 = icmp sgt i32 %26, %27
  br i1 %28, label %._crit_edge.loopexit.i, label %29

29:                                               ; preds = %21
  store i32 %22, ptr %13, align 4
  %30 = load i32, ptr %9, align 4
  %31 = getelementptr inbounds nuw i8, ptr %13, i64 4
  store i32 %30, ptr %31, align 4
  %32 = getelementptr inbounds nuw i8, ptr %13, i64 20
  store i32 1, ptr %32, align 4
  %33 = load i32, ptr %14, align 4
  %34 = load i32, ptr %7, align 4
  %35 = add nsw i32 %34, %33
  store i32 %35, ptr %7, align 4
  %36 = load i32, ptr %9, align 4
  %37 = load i32, ptr %24, align 4
  %38 = add nsw i32 %37, %36
  %39 = load i32, ptr %8, align 4
  %40 = icmp sgt i32 %38, %39
  br i1 %40, label %41, label %42

41:                                               ; preds = %29
  store i32 %38, ptr %8, align 4
  br label %42

42:                                               ; preds = %41, %29
  %indvars.iv.next.i = add nuw nsw i64 %indvars.iv.i, 1
  %exitcond.not.i = icmp eq i64 %indvars.iv.next.i, %wide.trip.count.i
  br i1 %exitcond.not.i, label %_ZL16stbrp_pack_rectsP13stbrp_contextP10stbrp_recti.exit, label %11, !llvm.loop !53

._crit_edge.loopexit.i:                           ; preds = %21
  %43 = trunc nuw nsw i64 %indvars.iv.i to i32
  br label %._crit_edge.i

._crit_edge.i:                                    ; preds = %._crit_edge.loopexit.i, %3
  %.0.lcssa.i = phi i32 [ 0, %3 ], [ %43, %._crit_edge.loopexit.i ]
  %44 = icmp slt i32 %.0.lcssa.i, %2
  br i1 %44, label %.lr.ph43.preheader.i, label %_ZL16stbrp_pack_rectsP13stbrp_contextP10stbrp_recti.exit

.lr.ph43.preheader.i:                             ; preds = %._crit_edge.i
  %45 = zext i32 %.0.lcssa.i to i64
  %wide.trip.count = zext i32 %2 to i64
  br label %.lr.ph43.i

.lr.ph43.i:                                       ; preds = %.lr.ph43.i, %.lr.ph43.preheader.i
  %indvars.iv46.i = phi i64 [ %45, %.lr.ph43.preheader.i ], [ %indvars.iv.next47.i, %.lr.ph43.i ]
  %46 = getelementptr inbounds nuw %struct.stbrp_rect, ptr %1, i64 %indvars.iv46.i, i32 5
  store i32 0, ptr %46, align 4
  %indvars.iv.next47.i = add nuw nsw i64 %indvars.iv46.i, 1
  %exitcond.not = icmp eq i64 %indvars.iv.next47.i, %wide.trip.count
  br i1 %exitcond.not, label %_ZL16stbrp_pack_rectsP13stbrp_contextP10stbrp_recti.exit, label %.lr.ph43.i, !llvm.loop !54

_ZL16stbrp_pack_rectsP13stbrp_contextP10stbrp_recti.exit: ; preds = %42, %.lr.ph43.i, %._crit_edge.i
  ret void
}